; Function Attrs: nounwind uwtable
define ptr @l_UInt32_reduceBoolPred____x40_Lean_Meta_Tactic_Simp_BuiltinSimprocs_UInt___hyg_10599____lambda__1___boxed(ptr noundef %0, ptr noundef %1, ptr noundef %2, ptr noundef %3, ptr noundef %4, ptr noundef %5, ptr noundef %6, ptr noundef %7, ptr noundef %8, ptr noundef %9, ptr noundef %10) local_unnamed_addr #0 {
  %12 = tail call ptr @l_UInt32_reduceBoolPred____x40_Lean_Meta_Tactic_Simp_BuiltinSimprocs_UInt___hyg_10599____lambda__1(ptr noundef %0, ptr noundef %1, ptr poison, ptr poison, ptr poison, ptr poison, ptr noundef %6, ptr noundef %7, ptr noundef %8, ptr noundef %9, ptr noundef %10)
  %13 = ptrtoint ptr %5 to i64
  %14 = and i64 %13, 1
  %.not = icmp eq i64 %14, 0
  br i1 %.not, label %15, label %lean_dec.exit20

15:                                               ; preds = %11
  %16 = load i32, ptr %5, align 4, !tbaa !8
  %17 = icmp sgt i32 %16, 1
  br i1 %17, label %18, label %20, !prof !11

18:                                               ; preds = %15
  %19 = add nsw i32 %16, -1
  store i32 %19, ptr %5, align 4, !tbaa !8
  br label %lean_dec.exit20

20:                                               ; preds = %15
  %.not.i = icmp eq i32 %16, 0
  br i1 %.not.i, label %lean_dec.exit20, label %21

21:                                               ; preds = %20
  tail call void @lean_dec_ref_cold(ptr noundef nonnull %5) #5
  br label %lean_dec.exit20

lean_dec.exit20:                                  ; preds = %21, %20, %18, %11
  %22 = ptrtoint ptr %4 to i64
  %23 = and i64 %22, 1
  %.not29 = icmp eq i64 %23, 0
  br i1 %.not29, label %24, label %lean_dec.exit19

24:                                               ; preds = %lean_dec.exit20
  %25 = load i32, ptr %4, align 4, !tbaa !8
  %26 = icmp sgt i32 %25, 1
  br i1 %26, label %27, label %29, !prof !11

27:                                               ; preds = %24
  %28 = add nsw i32 %25, -1
  store i32 %28, ptr %4, align 4, !tbaa !8
  br label %lean_dec.exit19

29:                                               ; preds = %24
  %.not.i21 = icmp eq i32 %25, 0
  br i1 %.not.i21, label %lean_dec.exit19, label %30

30:                                               ; preds = %29
  tail call void @lean_dec_ref_cold(ptr noundef nonnull %4) #5
  br label %lean_dec.exit19

lean_dec.exit19:                                  ; preds = %30, %29, %27, %lean_dec.exit20
  %31 = ptrtoint ptr %3 to i64
  %32 = and i64 %31, 1
  %.not30 = icmp eq i64 %32, 0
  br i1 %.not30, label %33, label %lean_dec.exit18

33:                                               ; preds = %lean_dec.exit19
  %34 = load i32, ptr %3, align 4, !tbaa !8
  %35 = icmp sgt i32 %34, 1
  br i1 %35, label %36, label %38, !prof !11

36:                                               ; preds = %33
  %37 = add nsw i32 %34, -1
  store i32 %37, ptr %3, align 4, !tbaa !8
  br label %lean_dec.exit18

38:                                               ; preds = %33
  %.not.i23 = icmp eq i32 %34, 0
  br i1 %.not.i23, label %lean_dec.exit18, label %39

39:                                               ; preds = %38
  tail call void @lean_dec_ref_cold(ptr noundef nonnull %3) #5
  br label %lean_dec.exit18

lean_dec.exit18:                                  ; preds = %39, %38, %36, %lean_dec.exit19
  %40 = ptrtoint ptr %2 to i64
  %41 = and i64 %40, 1
  %.not31 = icmp eq i64 %41, 0
  br i1 %.not31, label %42, label %lean_dec.exit17

42:                                               ; preds = %lean_dec.exit18
  %43 = load i32, ptr %2, align 4, !tbaa !8
  %44 = icmp sgt i32 %43, 1
  br i1 %44, label %45, label %47, !prof !11

45:                                               ; preds = %42
  %46 = add nsw i32 %43, -1
  store i32 %46, ptr %2, align 4, !tbaa !8
  br label %lean_dec.exit17

47:                                               ; preds = %42
  %.not.i25 = icmp eq i32 %43, 0
  br i1 %.not.i25, label %lean_dec.exit17, label %48

48:                                               ; preds = %47
  tail call void @lean_dec_ref_cold(ptr noundef nonnull %2) #5
  br label %lean_dec.exit17

lean_dec.exit17:                                  ; preds = %48, %47, %45, %lean_dec.exit18
  %49 = ptrtoint ptr %0 to i64
  %50 = and i64 %49, 1
  %.not32 = icmp eq i64 %50, 0
  br i1 %.not32, label %51, label %lean_dec.exit

51:                                               ; preds = %lean_dec.exit17
  %52 = load i32, ptr %0, align 4, !tbaa !8
  %53 = icmp sgt i32 %52, 1
  br i1 %53, label %54, label %56, !prof !11

54:                                               ; preds = %51
  %55 = add nsw i32 %52, -1
  store i32 %55, ptr %0, align 4, !tbaa !8
  br label %lean_dec.exit

56:                                               ; preds = %51
  %.not.i27 = icmp eq i32 %52, 0
  br i1 %.not.i27, label %lean_dec.exit, label %57

57:                                               ; preds = %56
  tail call void @lean_dec_ref_cold(ptr noundef nonnull %0) #5
  br label %lean_dec.exit

lean_dec.exit:                                    ; preds = %57, %56, %54, %lean_dec.exit17
  ret ptr %12
}